target datalayout = "e-m:e-p270:32:32-p271:32:32-p272:64:64-i64:64-i128:128-f80:128-n8:16:32:64-S128"
target triple = "x86_64-pc-linux-gnu"

%struct.json_dumper = type { ptr, ptr, i32, i32, i32, i32, [1100 x i8] }

@dumper = internal global %struct.json_dumper zeroinitializer, align 8
@.str.20 = private unnamed_addr constant [4 x i8] c"tap\00", align 1
@.str.83 = private unnamed_addr constant [5 x i8] c"name\00", align 1
@.str.172 = private unnamed_addr constant [17 x i8] c"Export Object/%s\00", align 1
@.str.173 = private unnamed_addr constant [6 x i8] c"eo:%s\00", align 1

; Function Attrs: null_pointer_is_valid sspstrong uwtable
define internal zeroext i1 @sharkd_export_object_visit_cb(ptr noundef %0, ptr noundef %1, ptr noundef %2) #0 {
  %4 = alloca ptr, align 8
  %5 = alloca ptr, align 8
  %6 = alloca ptr, align 8
  %7 = alloca ptr, align 8
  %8 = alloca i32, align 4
  %9 = alloca ptr, align 8
  %10 = alloca ptr, align 8
  store ptr %0, ptr %4, align 8
  store ptr %1, ptr %5, align 8
  store ptr %2, ptr %6, align 8
  call void @llvm.lifetime.start.p0(i64 8, ptr %7) #21
  %11 = load ptr, ptr %5, align 8
  store ptr %11, ptr %7, align 8
  call void @llvm.lifetime.start.p0(i64 4, ptr %8) #21
  %12 = load ptr, ptr %7, align 8
  %13 = call i32 @get_eo_proto_id(ptr noundef %12)
  store i32 %13, ptr %8, align 4
  call void @llvm.lifetime.start.p0(i64 8, ptr %9) #21
  %14 = load i32, ptr %8, align 4
  %15 = call ptr @proto_get_protocol_filter_name(i32 noundef %14)
  store ptr %15, ptr %9, align 8
  call void @llvm.lifetime.start.p0(i64 8, ptr %10) #21
  %16 = load i32, ptr %8, align 4
  %17 = call ptr @find_protocol_by_id(i32 noundef %16)
  %18 = call ptr @proto_get_protocol_short_name(ptr noundef %17)
  store ptr %18, ptr %10, align 8
  call void @json_dumper_begin_object(ptr noundef @dumper)
  %19 = load ptr, ptr %10, align 8
  call void (ptr, ptr, ...) @sharkd_json_value_stringf(ptr noundef @.str.83, ptr noundef @.str.172, ptr noundef %19)
  %20 = load ptr, ptr %9, align 8
  call void (ptr, ptr, ...) @sharkd_json_value_stringf(ptr noundef @.str.20, ptr noundef @.str.173, ptr noundef %20)
  call void @json_dumper_end_object(ptr noundef @dumper)
  call void @llvm.lifetime.end.p0(i64 8, ptr %10) #21
  call void @llvm.lifetime.end.p0(i64 8, ptr %9) #21
  call void @llvm.lifetime.end.p0(i64 4, ptr %8) #21
  call void @llvm.lifetime.end.p0(i64 8, ptr %7) #21
  ret i1 false
}